; Function Attrs: mustprogress nounwind uwtable
define dso_local void @_ZN5clang5index26generateUSRForObjCCategoryEN4llvm9StringRefES2_RNS1_11raw_ostreamES2_S2_(ptr %0, i64 %1, ptr %2, i64 %3, ptr noundef nonnull align 8 dereferenceable(48) %4, ptr noundef readonly byval(%"class.llvm::StringRef") align 8 captures(none) %5, ptr noundef readonly byval(%"class.llvm::StringRef") align 8 captures(none) %6) local_unnamed_addr #0 {
  %.sroa.05.0.copyload = load ptr, ptr %5, align 8
  %.sroa.26.0..sroa_idx = getelementptr inbounds nuw i8, ptr %5, i64 8
  %.sroa.26.0.copyload = load i64, ptr %.sroa.26.0..sroa_idx, align 8
  %.sroa.03.0.copyload = load ptr, ptr %6, align 8
  %.sroa.24.0..sroa_idx = getelementptr inbounds nuw i8, ptr %6, i64 8
  %.sroa.24.0.copyload = load i64, ptr %.sroa.24.0..sroa_idx, align 8
  tail call fastcc void @_ZL36combineClassAndCategoryExtContainersN4llvm9StringRefES0_RNS_11raw_ostreamE(ptr %.sroa.05.0.copyload, i64 %.sroa.26.0.copyload, ptr %.sroa.03.0.copyload, i64 %.sroa.24.0.copyload, ptr noundef nonnull align 8 dereferenceable(48) %4)
  %8 = getelementptr inbounds nuw i8, ptr %4, i64 24
  %9 = load ptr, ptr %8, align 8
  %10 = getelementptr inbounds nuw i8, ptr %4, i64 32
  %11 = load ptr, ptr %10, align 8
  %12 = ptrtoint ptr %9 to i64
  %13 = ptrtoint ptr %11 to i64
  %14 = sub i64 %12, %13
  %15 = icmp ult i64 %14, 8
  br i1 %15, label %16, label %18

16:                                               ; preds = %7
  %17 = tail call noundef nonnull align 8 dereferenceable(48) ptr @_ZN4llvm11raw_ostream5writeEPKcm(ptr noundef nonnull align 8 dereferenceable(48) %4, ptr noundef nonnull @.str.1, i64 noundef 8) #14
  %.phi.trans.insert = getelementptr inbounds nuw i8, ptr %17, i64 32
  %.pre = load ptr, ptr %.phi.trans.insert, align 8
  br label %_ZN4llvm11raw_ostreamlsEPKc.exit

18:                                               ; preds = %7
  store i64 2988528852854792815, ptr %11, align 1
  %19 = load ptr, ptr %10, align 8
  %20 = getelementptr inbounds nuw i8, ptr %19, i64 8
  store ptr %20, ptr %10, align 8
  br label %_ZN4llvm11raw_ostreamlsEPKc.exit

_ZN4llvm11raw_ostreamlsEPKc.exit:                 ; preds = %16, %18
  %21 = phi ptr [ %.pre, %16 ], [ %20, %18 ]
  %.0.i.i = phi ptr [ %17, %16 ], [ %4, %18 ]
  %22 = getelementptr inbounds nuw i8, ptr %.0.i.i, i64 24
  %23 = load ptr, ptr %22, align 8
  %24 = getelementptr inbounds nuw i8, ptr %.0.i.i, i64 32
  %25 = ptrtoint ptr %23 to i64
  %26 = ptrtoint ptr %21 to i64
  %27 = sub i64 %25, %26
  %28 = icmp ugt i64 %1, %27
  br i1 %28, label %29, label %31

29:                                               ; preds = %_ZN4llvm11raw_ostreamlsEPKc.exit
  %30 = tail call noundef nonnull align 8 dereferenceable(48) ptr @_ZN4llvm11raw_ostream5writeEPKcm(ptr noundef nonnull align 8 dereferenceable(48) %.0.i.i, ptr noundef %0, i64 noundef %1) #14
  %.phi.trans.insert17 = getelementptr inbounds nuw i8, ptr %30, i64 32
  %.pre18 = load ptr, ptr %.phi.trans.insert17, align 8
  br label %_ZN4llvm11raw_ostreamlsENS_9StringRefE.exit

31:                                               ; preds = %_ZN4llvm11raw_ostreamlsEPKc.exit
  %.not.i = icmp eq i64 %1, 0
  br i1 %.not.i, label %_ZN4llvm11raw_ostreamlsENS_9StringRefE.exit, label %32

32:                                               ; preds = %31
  tail call void @llvm.memcpy.p0.p0.i64(ptr align 1 %21, ptr align 1 %0, i64 %1, i1 false)
  %33 = load ptr, ptr %24, align 8
  %34 = getelementptr inbounds i8, ptr %33, i64 %1
  store ptr %34, ptr %24, align 8
  br label %_ZN4llvm11raw_ostreamlsENS_9StringRefE.exit

_ZN4llvm11raw_ostreamlsENS_9StringRefE.exit:      ; preds = %29, %31, %32
  %35 = phi ptr [ %.pre18, %29 ], [ %34, %32 ], [ %21, %31 ]
  %.0.i = phi ptr [ %30, %29 ], [ %.0.i.i, %32 ], [ %.0.i.i, %31 ]
  %36 = getelementptr inbounds nuw i8, ptr %.0.i, i64 24
  %37 = load ptr, ptr %36, align 8
  %.not.i12 = icmp ult ptr %35, %37
  br i1 %.not.i12, label %40, label %38

38:                                               ; preds = %_ZN4llvm11raw_ostreamlsENS_9StringRefE.exit
  %39 = tail call noundef nonnull align 8 dereferenceable(48) ptr @_ZN4llvm11raw_ostream5writeEh(ptr noundef nonnull align 8 dereferenceable(48) %.0.i, i8 noundef zeroext 64) #14
  br label %_ZN4llvm11raw_ostreamlsEc.exit

40:                                               ; preds = %_ZN4llvm11raw_ostreamlsENS_9StringRefE.exit
  %41 = getelementptr inbounds nuw i8, ptr %.0.i, i64 32
  %42 = getelementptr inbounds nuw i8, ptr %35, i64 1
  store ptr %42, ptr %41, align 8
  store i8 64, ptr %35, align 1
  br label %_ZN4llvm11raw_ostreamlsEc.exit

_ZN4llvm11raw_ostreamlsEc.exit:                   ; preds = %38, %40
  %.0.i13 = phi ptr [ %39, %38 ], [ %.0.i, %40 ]
  %43 = getelementptr inbounds nuw i8, ptr %.0.i13, i64 24
  %44 = load ptr, ptr %43, align 8
  %45 = getelementptr inbounds nuw i8, ptr %.0.i13, i64 32
  %46 = load ptr, ptr %45, align 8
  %47 = ptrtoint ptr %44 to i64
  %48 = ptrtoint ptr %46 to i64
  %49 = sub i64 %47, %48
  %50 = icmp ugt i64 %3, %49
  br i1 %50, label %51, label %53

51:                                               ; preds = %_ZN4llvm11raw_ostreamlsEc.exit
  %52 = tail call noundef nonnull align 8 dereferenceable(48) ptr @_ZN4llvm11raw_ostream5writeEPKcm(ptr noundef nonnull align 8 dereferenceable(48) %.0.i13, ptr noundef %2, i64 noundef %3) #14
  br label %_ZN4llvm11raw_ostreamlsENS_9StringRefE.exit16

53:                                               ; preds = %_ZN4llvm11raw_ostreamlsEc.exit
  %.not.i14 = icmp eq i64 %3, 0
  br i1 %.not.i14, label %_ZN4llvm11raw_ostreamlsENS_9StringRefE.exit16, label %54

54:                                               ; preds = %53
  tail call void @llvm.memcpy.p0.p0.i64(ptr align 1 %46, ptr align 1 %2, i64 %3, i1 false)
  %55 = load ptr, ptr %45, align 8
  %56 = getelementptr inbounds i8, ptr %55, i64 %3
  store ptr %56, ptr %45, align 8
  br label %_ZN4llvm11raw_ostreamlsENS_9StringRefE.exit16

_ZN4llvm11raw_ostreamlsENS_9StringRefE.exit16:    ; preds = %51, %53, %54
  ret void
}